; Function Attrs: cold nounwind optsize uwtable
define internal range(i32 -1163346256, 1) i32 @roq_decode_init(ptr noundef %0) #0 {
  %2 = getelementptr inbounds nuw i8, ptr %0, i64 32
  %3 = load ptr, ptr %2, align 8, !tbaa !4
  %4 = getelementptr inbounds nuw i8, ptr %3, i64 8
  store ptr %0, ptr %4, align 8, !tbaa !27
  %5 = getelementptr inbounds nuw i8, ptr %0, i64 112
  %6 = load i32, ptr %5, align 8, !tbaa !30
  %7 = and i32 %6, 15
  %.not = icmp eq i32 %7, 0
  br i1 %.not, label %8, label %12

8:                                                ; preds = %1
  %9 = getelementptr inbounds nuw i8, ptr %0, i64 116
  %10 = load i32, ptr %9, align 4, !tbaa !31
  %11 = and i32 %10, 15
  %.not16 = icmp eq i32 %11, 0
  br i1 %.not16, label %13, label %12

12:                                               ; preds = %8, %1
  tail call void (ptr, ptr, ...) @avpriv_request_sample(ptr noundef nonnull %0, ptr noundef nonnull @.str.2) #4
  br label %25

13:                                               ; preds = %8
  %14 = getelementptr inbounds nuw i8, ptr %3, i64 32
  store i32 %6, ptr %14, align 8, !tbaa !32
  %15 = getelementptr inbounds nuw i8, ptr %3, i64 36
  store i32 %10, ptr %15, align 4, !tbaa !33
  %16 = tail call ptr @av_frame_alloc() #4
  %17 = getelementptr inbounds nuw i8, ptr %3, i64 16
  store ptr %16, ptr %17, align 8, !tbaa !34
  %18 = tail call ptr @av_frame_alloc() #4
  %19 = getelementptr inbounds nuw i8, ptr %3, i64 24
  store ptr %18, ptr %19, align 8, !tbaa !35
  %.not17 = icmp eq ptr %18, null
  br i1 %.not17, label %25, label %20

20:                                               ; preds = %13
  %21 = load ptr, ptr %17, align 8, !tbaa !34
  %.not18 = icmp eq ptr %21, null
  br i1 %.not18, label %25, label %22

22:                                               ; preds = %20
  %23 = getelementptr inbounds nuw i8, ptr %0, i64 136
  store i32 14, ptr %23, align 8, !tbaa !36
  %24 = getelementptr inbounds nuw i8, ptr %0, i64 156
  store i32 2, ptr %24, align 4, !tbaa !37
  br label %25

25:                                               ; preds = %13, %20, %22, %12
  %.0 = phi i32 [ -1163346256, %12 ], [ 0, %22 ], [ -12, %20 ], [ -12, %13 ]
  ret i32 %.0
}